; Function Attrs: nounwind uwtable
define void @validateDensityMatrQureg(ptr noundef readonly byval(%struct.Qureg) align 8 captures(none) %0, ptr noundef %1) local_unnamed_addr #3 {
  %3 = load i32, ptr %0, align 8, !tbaa !32
  %.not.i = icmp eq i32 %3, 0
  br i1 %.not.i, label %4, label %QuESTAssert.exit

4:                                                ; preds = %2
  tail call void @invalidQuESTInputError(ptr noundef nonnull @.str.37, ptr noundef %1)
  br label %QuESTAssert.exit

QuESTAssert.exit:                                 ; preds = %2, %4
  ret void
}